; ModuleID = 'source-C-CXX/37/1676.c'
source_filename = "source-C-CXX/37/1676.c"
target datalayout = "e-m:e-p270:32:32-p271:32:32-p272:64:64-i64:64-f80:128-n8:16:32:64-S128"
target triple = "x86_64-pc-linux-gnu"

@.str = private unnamed_addr constant [3 x i8] c"%d\00", align 1
@.str.1 = private unnamed_addr constant [4 x i8] c"%lf\00", align 1
@.str.2 = private unnamed_addr constant [6 x i8] c"%.5f\0A\00", align 1

; Function Attrs: nofree nounwind sspstrong uwtable
define dso_local i32 @main() local_unnamed_addr #0 {
  %1 = alloca i32, align 4
  %2 = alloca i32, align 4
  %3 = alloca [105 x double], align 16
  %4 = bitcast i32* %1 to i8*
  call void @llvm.lifetime.start.p0i8(i64 4, i8* nonnull %4) #5
  %5 = bitcast i32* %2 to i8*
  call void @llvm.lifetime.start.p0i8(i64 4, i8* nonnull %5) #5
  %6 = bitcast [105 x double]* %3 to i8*
  call void @llvm.lifetime.start.p0i8(i64 840, i8* nonnull %6) #5
  call void @llvm.memset.p0i8.i64(i8* noundef nonnull align 16 dereferenceable(840) %6, i8 0, i64 840, i1 false)
  %7 = call i32 (i8*, ...) @__isoc99_scanf(i8* getelementptr inbounds ([3 x i8], [3 x i8]* @.str, i64 0, i64 0), i32* nonnull %1)
  %8 = getelementptr inbounds [105 x double], [105 x double]* %3, i64 0, i64 0
  %9 = load i32, i32* %1, align 4, !tbaa !5
  %10 = add nsw i32 %9, -1
  store i32 %10, i32* %1, align 4, !tbaa !5
  %11 = icmp sgt i32 %9, 0
  br i1 %11, label %12, label %53

12:                                               ; preds = %0, %45
  %13 = call i32 (i8*, ...) @__isoc99_scanf(i8* getelementptr inbounds ([3 x i8], [3 x i8]* @.str, i64 0, i64 0), i32* nonnull %2)
  %14 = load i32, i32* %2, align 4, !tbaa !5
  %15 = sext i32 %14 to i64
  %16 = getelementptr inbounds [105 x double], [105 x double]* %3, i64 0, i64 %15
  %17 = icmp sgt i32 %14, 0
  br i1 %17, label %18, label %29

18:                                               ; preds = %12, %18
  %19 = phi double* [ %24, %18 ], [ %8, %12 ]
  %20 = phi double [ %23, %18 ], [ 0.000000e+00, %12 ]
  %21 = call i32 (i8*, ...) @__isoc99_scanf(i8* getelementptr inbounds ([4 x i8], [4 x i8]* @.str.1, i64 0, i64 0), double* nonnull %19)
  %22 = load double, double* %19, align 8, !tbaa !9
  %23 = fadd double %20, %22
  %24 = getelementptr inbounds double, double* %19, i64 1
  %25 = load i32, i32* %2, align 4, !tbaa !5
  %26 = sext i32 %25 to i64
  %27 = getelementptr inbounds [105 x double], [105 x double]* %3, i64 0, i64 %26
  %28 = icmp ult double* %24, %27
  br i1 %28, label %18, label %29, !llvm.loop !11

29:                                               ; preds = %18, %12
  %30 = phi double [ 0.000000e+00, %12 ], [ %23, %18 ]
  %31 = phi i32 [ %14, %12 ], [ %25, %18 ]
  %32 = phi double* [ %16, %12 ], [ %27, %18 ]
  %33 = sitofp i32 %31 to double
  %34 = fdiv double %30, %33
  %35 = icmp ult double* %8, %32
  br i1 %35, label %36, label %45

36:                                               ; preds = %29, %36
  %37 = phi double* [ %43, %36 ], [ %8, %29 ]
  %38 = phi double [ %42, %36 ], [ 0.000000e+00, %29 ]
  %39 = load double, double* %37, align 8, !tbaa !9
  %40 = fsub double %39, %34
  %41 = fmul double %40, %40
  %42 = fadd double %38, %41
  %43 = getelementptr inbounds double, double* %37, i64 1
  %44 = icmp ult double* %43, %32
  br i1 %44, label %36, label %45, !llvm.loop !13

45:                                               ; preds = %36, %29
  %46 = phi double [ 0.000000e+00, %29 ], [ %42, %36 ]
  %47 = fdiv double %46, %33
  %48 = call double @sqrt(double %47) #5
  %49 = call i32 (i8*, ...) @printf(i8* nonnull dereferenceable(1) getelementptr inbounds ([6 x i8], [6 x i8]* @.str.2, i64 0, i64 0), double %48)
  %50 = load i32, i32* %1, align 4, !tbaa !5
  %51 = add nsw i32 %50, -1
  store i32 %51, i32* %1, align 4, !tbaa !5
  %52 = icmp sgt i32 %50, 0
  br i1 %52, label %12, label %53, !llvm.loop !14

53:                                               ; preds = %45, %0
  call void @llvm.lifetime.end.p0i8(i64 840, i8* nonnull %6) #5
  call void @llvm.lifetime.end.p0i8(i64 4, i8* nonnull %5) #5
  call void @llvm.lifetime.end.p0i8(i64 4, i8* nonnull %4) #5
  ret i32 0
}

; Function Attrs: argmemonly mustprogress nofree nosync nounwind willreturn
declare void @llvm.lifetime.start.p0i8(i64 immarg, i8* nocapture) #1

; Function Attrs: argmemonly mustprogress nofree nounwind willreturn writeonly
declare void @llvm.memset.p0i8.i64(i8* nocapture writeonly, i8, i64, i1 immarg) #2

; Function Attrs: nofree nounwind
declare noundef i32 @__isoc99_scanf(i8* nocapture noundef readonly, ...) local_unnamed_addr #3

; Function Attrs: mustprogress nofree nounwind willreturn
declare double @sqrt(double) local_unnamed_addr #4

; Function Attrs: nofree nounwind
declare noundef i32 @printf(i8* nocapture noundef readonly, ...) local_unnamed_addr #3

; Function Attrs: argmemonly mustprogress nofree nosync nounwind willreturn
declare void @llvm.lifetime.end.p0i8(i64 immarg, i8* nocapture) #1


!llvm.module.flags = !{!0, !1, !2, !3}
!llvm.ident = !{!4}

!0 = !{i32 1, !"wchar_size", i32 4}
!1 = !{i32 7, !"PIC Level", i32 2}
!2 = !{i32 7, !"PIE Level", i32 2}
!3 = !{i32 7, !"uwtable", i32 1}
!4 = !{!"clang version 13.0.0"}
!5 = !{!6, !6, i64 0}
!6 = !{!"int", !7, i64 0}
!7 = !{!"omnipotent char", !8, i64 0}
!8 = !{!"Simple C/C++ TBAA"}
!9 = !{!10, !10, i64 0}
!10 = !{!"double", !7, i64 0}
!11 = distinct !{!11, !12}
!12 = !{!"llvm.loop.mustprogress"}
!13 = distinct !{!13, !12}
!14 = distinct !{!14, !12}
